target datalayout = "e-m:e-p270:32:32-p271:32:32-p272:64:64-i64:64-i128:128-f80:128-n8:16:32:64-S128"
target triple = "x86_64-pc-linux-gnu"

@.str.136 = private unnamed_addr constant [13 x i8] c"%.5f %s (%d)\00", align 1
@.str.139 = private unnamed_addr constant [2 x i8] c"W\00", align 1
@.str.140 = private unnamed_addr constant [2 x i8] c"E\00", align 1

; Function Attrs: nounwind uwtable
define internal void @rach_gps_pos_long_fmt(ptr noundef %0, i32 noundef %1) #0 {
  %3 = alloca ptr, align 8
  %4 = alloca i32, align 4
  %5 = alloca i32, align 4
  store ptr %0, ptr %3, align 8
  store i32 %1, ptr %4, align 4
  %6 = load i32, ptr %4, align 4
  store i32 %6, ptr %5, align 4
  %7 = load ptr, ptr %3, align 8
  %8 = load i32, ptr %5, align 4
  %9 = call i32 @llvm.abs.i32(i32 %8, i1 false)
  %10 = sitofp i32 %9 to float
  %11 = fdiv float %10, 0x40A6C16940000000
  %12 = fpext float %11 to double
  %13 = load i32, ptr %5, align 4
  %14 = icmp slt i32 %13, 0
  %15 = select i1 %14, ptr @.str.139, ptr @.str.140
  %16 = load i32, ptr %5, align 4
  %17 = call i32 (ptr, i64, ptr, ...) @snprintf(ptr noundef %7, i64 noundef 240, ptr noundef @.str.136, double noundef %12, ptr noundef %15, i32 noundef %16) #4
  ret void
}