; Function Attrs: nofree nounwind uwtable
define internal void @rach_gps_pos_long_fmt(ptr noundef writeonly captures(none) %0, i32 noundef %1) #1 {
  %3 = tail call i32 @llvm.abs.i32(i32 %1, i1 false)
  %4 = sitofp i32 %3 to float
  %5 = fdiv float %4, 0x40A6C16940000000
  %6 = fpext float %5 to double
  %7 = icmp slt i32 %1, 0
  %8 = select i1 %7, ptr @.str.139, ptr @.str.140
  %9 = tail call i32 (ptr, i64, ptr, ...) @snprintf(ptr noundef nonnull dereferenceable(1) %0, i64 noundef 240, ptr noundef nonnull @.str.136, double noundef %6, ptr noundef nonnull %8, i32 noundef %1) #7
  ret void
}